target datalayout = "e-m:e-p270:32:32-p271:32:32-p272:64:64-i64:64-i128:128-f80:128-n8:16:32:64-S128"
target triple = "x86_64-pc-linux-gnu"

%struct.PJconsts = type { ptr, ptr, ptr, ptr, ptr, ptr, ptr, ptr, ptr, ptr, ptr, ptr, i32, ptr, ptr, ptr, ptr, ptr, ptr, ptr, ptr, double, double, double, double, double, double, double, double, double, double, double, double, double, double, double, double, double, double, double, double, double, double, i32, i32, i32, i32, i32, i32, i32, i32, i32, i32, i32, ptr, ptr, ptr, ptr, ptr, ptr, double, double, double, double, double, double, double, double, double, double, double, i32, [7 x double], i32, ptr, ptr, double, double, i32, [4 x i8], %"class.std::shared_ptr", i8, double, i8, %"class.std::__cxx11::basic_string", %"class.std::__cxx11::basic_string", %"class.std::__cxx11::basic_string", i8, %"class.std::vector", i32, %"class.std::vector.3", i32, i8, i8, i8, ptr }
%"class.std::shared_ptr" = type { %"class.std::__shared_ptr" }
%"class.std::__shared_ptr" = type { ptr, %"class.std::__shared_count" }
%"class.std::__shared_count" = type { ptr }
%"class.std::__cxx11::basic_string" = type { %"struct.std::__cxx11::basic_string<char>::_Alloc_hider", i64, %union.anon }
%"struct.std::__cxx11::basic_string<char>::_Alloc_hider" = type { ptr }
%union.anon = type { i64, [8 x i8] }
%"class.std::vector" = type { %"struct.std::_Vector_base" }
%"struct.std::_Vector_base" = type { %"struct.std::_Vector_base<osgeo::proj::operation::GridDescription, std::allocator<osgeo::proj::operation::GridDescription>>::_Vector_impl" }
%"struct.std::_Vector_base<osgeo::proj::operation::GridDescription, std::allocator<osgeo::proj::operation::GridDescription>>::_Vector_impl" = type { %"struct.std::_Vector_base<osgeo::proj::operation::GridDescription, std::allocator<osgeo::proj::operation::GridDescription>>::_Vector_impl_data" }
%"struct.std::_Vector_base<osgeo::proj::operation::GridDescription, std::allocator<osgeo::proj::operation::GridDescription>>::_Vector_impl_data" = type { ptr, ptr, ptr }
%"class.std::vector.3" = type { %"struct.std::_Vector_base.4" }
%"struct.std::_Vector_base.4" = type { %"struct.std::_Vector_base<PJCoordOperation, std::allocator<PJCoordOperation>>::_Vector_impl" }
%"struct.std::_Vector_base<PJCoordOperation, std::allocator<PJCoordOperation>>::_Vector_impl" = type { %"struct.std::_Vector_base<PJCoordOperation, std::allocator<PJCoordOperation>>::_Vector_impl_data" }
%"struct.std::_Vector_base<PJCoordOperation, std::allocator<PJCoordOperation>>::_Vector_impl_data" = type { ptr, ptr, ptr }
%"struct.(anonymous namespace)::pj_aeqd_data" = type { double, double, ptr, double, double, double, double, double, i32, %struct.geod_geodesic }
%struct.geod_geodesic = type { double, double, double, double, double, double, double, double, double, [6 x double], [15 x double], [21 x double] }
%struct.PJ_LP = type { double, double }
%struct.PJ_XY = type { double, double }

; Function Attrs: mustprogress uwtable
define internal { double, double } @_ZL14aeqd_e_forward5PJ_LPP8PJconsts(double %0, double %1, ptr noundef %2) #0 {
  %4 = alloca %struct.PJ_XY, align 8
  %5 = alloca %struct.PJ_LP, align 8
  %6 = alloca ptr, align 8
  %7 = alloca ptr, align 8
  %8 = alloca double, align 8
  %9 = alloca double, align 8
  %10 = alloca double, align 8
  %11 = alloca double, align 8
  %12 = alloca double, align 8
  %13 = alloca double, align 8
  %14 = alloca double, align 8
  %15 = alloca double, align 8
  %16 = alloca double, align 8
  %17 = alloca double, align 8
  %18 = alloca double, align 8
  %19 = getelementptr inbounds nuw { double, double }, ptr %5, i32 0, i32 0
  store double %0, ptr %19, align 8
  %20 = getelementptr inbounds nuw { double, double }, ptr %5, i32 0, i32 1
  store double %1, ptr %20, align 8
  store ptr %2, ptr %6, align 8, !tbaa !3
  call void @llvm.memset.p0.i64(ptr align 8 %4, i8 0, i64 16, i1 false)
  call void @llvm.lifetime.start.p0(i64 8, ptr %7) #8
  %21 = load ptr, ptr %6, align 8, !tbaa !3
  %22 = getelementptr inbounds nuw %struct.PJconsts, ptr %21, i32 0, i32 11
  %23 = load ptr, ptr %22, align 8, !tbaa !43
  store ptr %23, ptr %7, align 8, !tbaa !41
  call void @llvm.lifetime.start.p0(i64 8, ptr %8) #8
  call void @llvm.lifetime.start.p0(i64 8, ptr %9) #8
  call void @llvm.lifetime.start.p0(i64 8, ptr %10) #8
  call void @llvm.lifetime.start.p0(i64 8, ptr %11) #8
  call void @llvm.lifetime.start.p0(i64 8, ptr %12) #8
  call void @llvm.lifetime.start.p0(i64 8, ptr %13) #8
  call void @llvm.lifetime.start.p0(i64 8, ptr %14) #8
  call void @llvm.lifetime.start.p0(i64 8, ptr %15) #8
  call void @llvm.lifetime.start.p0(i64 8, ptr %16) #8
  call void @llvm.lifetime.start.p0(i64 8, ptr %17) #8
  call void @llvm.lifetime.start.p0(i64 8, ptr %18) #8
  %24 = getelementptr inbounds nuw %struct.PJ_LP, ptr %5, i32 0, i32 0
  %25 = load double, ptr %24, align 8, !tbaa !76
  %26 = call double @cos(double noundef %25) #8, !tbaa !54
  store double %26, ptr %8, align 8, !tbaa !73
  %27 = load ptr, ptr %7, align 8, !tbaa !41
  %28 = getelementptr inbounds nuw %"struct.(anonymous namespace)::pj_aeqd_data", ptr %27, i32 0, i32 8
  %29 = load i32, ptr %28, align 8, !tbaa !47
  switch i32 %29, label %109 [
    i32 0, label %30
    i32 1, label %33
    i32 2, label %63
    i32 3, label %63
  ]

30:                                               ; preds = %3
  %31 = load double, ptr %8, align 8, !tbaa !73
  %32 = fneg double %31
  store double %32, ptr %8, align 8, !tbaa !73
  br label %33

33:                                               ; preds = %3, %30
  %34 = getelementptr inbounds nuw %struct.PJ_LP, ptr %5, i32 0, i32 1
  %35 = load double, ptr %34, align 8, !tbaa !74
  %36 = call double @cos(double noundef %35) #8, !tbaa !54
  store double %36, ptr %9, align 8, !tbaa !73
  %37 = getelementptr inbounds nuw %struct.PJ_LP, ptr %5, i32 0, i32 1
  %38 = load double, ptr %37, align 8, !tbaa !74
  %39 = call double @sin(double noundef %38) #8, !tbaa !54
  store double %39, ptr %10, align 8, !tbaa !73
  %40 = load ptr, ptr %7, align 8, !tbaa !41
  %41 = getelementptr inbounds nuw %"struct.(anonymous namespace)::pj_aeqd_data", ptr %40, i32 0, i32 5
  %42 = load double, ptr %41, align 8, !tbaa !64
  %43 = getelementptr inbounds nuw %struct.PJ_LP, ptr %5, i32 0, i32 1
  %44 = load double, ptr %43, align 8, !tbaa !74
  %45 = load double, ptr %10, align 8, !tbaa !73
  %46 = load double, ptr %9, align 8, !tbaa !73
  %47 = load ptr, ptr %7, align 8, !tbaa !41
  %48 = getelementptr inbounds nuw %"struct.(anonymous namespace)::pj_aeqd_data", ptr %47, i32 0, i32 2
  %49 = load ptr, ptr %48, align 8, !tbaa !59
  %50 = call noundef double @_Z7pj_mlfndddPKd(double noundef %44, double noundef %45, double noundef %46, ptr noundef %49)
  %51 = fsub double %42, %50
  %52 = call double @llvm.fabs.f64(double %51)
  store double %52, ptr %11, align 8, !tbaa !73
  %53 = load double, ptr %11, align 8, !tbaa !73
  %54 = getelementptr inbounds nuw %struct.PJ_LP, ptr %5, i32 0, i32 0
  %55 = load double, ptr %54, align 8, !tbaa !76
  %56 = call double @sin(double noundef %55) #8, !tbaa !54
  %57 = fmul double %53, %56
  %58 = getelementptr inbounds nuw %struct.PJ_XY, ptr %4, i32 0, i32 0
  store double %57, ptr %58, align 8, !tbaa !70
  %59 = load double, ptr %11, align 8, !tbaa !73
  %60 = load double, ptr %8, align 8, !tbaa !73
  %61 = fmul double %59, %60
  %62 = getelementptr inbounds nuw %struct.PJ_XY, ptr %4, i32 0, i32 1
  store double %61, ptr %62, align 8, !tbaa !72
  br label %109

63:                                               ; preds = %3, %3
  %64 = getelementptr inbounds nuw %struct.PJ_LP, ptr %5, i32 0, i32 0
  %65 = load double, ptr %64, align 8, !tbaa !76
  %66 = call double @llvm.fabs.f64(double %65)
  %67 = fcmp olt double %66, 1.000000e-10
  br i1 %67, label %68, label %80

68:                                               ; preds = %63
  %69 = getelementptr inbounds nuw %struct.PJ_LP, ptr %5, i32 0, i32 1
  %70 = load double, ptr %69, align 8, !tbaa !74
  %71 = load ptr, ptr %6, align 8, !tbaa !3
  %72 = getelementptr inbounds nuw %struct.PJconsts, ptr %71, i32 0, i32 61
  %73 = load double, ptr %72, align 8, !tbaa !46
  %74 = fsub double %70, %73
  %75 = call double @llvm.fabs.f64(double %74)
  %76 = fcmp olt double %75, 1.000000e-10
  br i1 %76, label %77, label %80

77:                                               ; preds = %68
  %78 = getelementptr inbounds nuw %struct.PJ_XY, ptr %4, i32 0, i32 1
  store double 0.000000e+00, ptr %78, align 8, !tbaa !72
  %79 = getelementptr inbounds nuw %struct.PJ_XY, ptr %4, i32 0, i32 0
  store double 0.000000e+00, ptr %79, align 8, !tbaa !70
  br label %109

80:                                               ; preds = %68, %63
  %81 = load ptr, ptr %6, align 8, !tbaa !3
  %82 = getelementptr inbounds nuw %struct.PJconsts, ptr %81, i32 0, i32 61
  %83 = load double, ptr %82, align 8, !tbaa !46
  %84 = fdiv double %83, 0x3F91DF46A2529D39
  store double %84, ptr %15, align 8, !tbaa !73
  store double 0.000000e+00, ptr %16, align 8, !tbaa !73
  %85 = getelementptr inbounds nuw %struct.PJ_LP, ptr %5, i32 0, i32 1
  %86 = load double, ptr %85, align 8, !tbaa !74
  %87 = fdiv double %86, 0x3F91DF46A2529D39
  store double %87, ptr %17, align 8, !tbaa !73
  %88 = getelementptr inbounds nuw %struct.PJ_LP, ptr %5, i32 0, i32 0
  %89 = load double, ptr %88, align 8, !tbaa !76
  %90 = fdiv double %89, 0x3F91DF46A2529D39
  store double %90, ptr %18, align 8, !tbaa !73
  %91 = load ptr, ptr %7, align 8, !tbaa !41
  %92 = getelementptr inbounds nuw %"struct.(anonymous namespace)::pj_aeqd_data", ptr %91, i32 0, i32 9
  %93 = load double, ptr %15, align 8, !tbaa !73
  %94 = load double, ptr %16, align 8, !tbaa !73
  %95 = load double, ptr %17, align 8, !tbaa !73
  %96 = load double, ptr %18, align 8, !tbaa !73
  call void @geod_inverse(ptr noundef %92, double noundef %93, double noundef %94, double noundef %95, double noundef %96, ptr noundef %14, ptr noundef %12, ptr noundef %13)
  %97 = load double, ptr %12, align 8, !tbaa !73
  %98 = fmul double %97, 0x3F91DF46A2529D39
  store double %98, ptr %12, align 8, !tbaa !73
  %99 = load double, ptr %14, align 8, !tbaa !73
  %100 = load double, ptr %12, align 8, !tbaa !73
  %101 = call double @sin(double noundef %100) #8, !tbaa !54
  %102 = fmul double %99, %101
  %103 = getelementptr inbounds nuw %struct.PJ_XY, ptr %4, i32 0, i32 0
  store double %102, ptr %103, align 8, !tbaa !70
  %104 = load double, ptr %14, align 8, !tbaa !73
  %105 = load double, ptr %12, align 8, !tbaa !73
  %106 = call double @cos(double noundef %105) #8, !tbaa !54
  %107 = fmul double %104, %106
  %108 = getelementptr inbounds nuw %struct.PJ_XY, ptr %4, i32 0, i32 1
  store double %107, ptr %108, align 8, !tbaa !72
  br label %109

109:                                              ; preds = %3, %80, %77, %33
  call void @llvm.lifetime.end.p0(i64 8, ptr %18) #8
  call void @llvm.lifetime.end.p0(i64 8, ptr %17) #8
  call void @llvm.lifetime.end.p0(i64 8, ptr %16) #8
  call void @llvm.lifetime.end.p0(i64 8, ptr %15) #8
  call void @llvm.lifetime.end.p0(i64 8, ptr %14) #8
  call void @llvm.lifetime.end.p0(i64 8, ptr %13) #8
  call void @llvm.lifetime.end.p0(i64 8, ptr %12) #8
  call void @llvm.lifetime.end.p0(i64 8, ptr %11) #8
  call void @llvm.lifetime.end.p0(i64 8, ptr %10) #8
  call void @llvm.lifetime.end.p0(i64 8, ptr %9) #8
  call void @llvm.lifetime.end.p0(i64 8, ptr %8) #8
  call void @llvm.lifetime.end.p0(i64 8, ptr %7) #8
  %110 = load { double, double }, ptr %4, align 8
  ret { double, double } %110
}