; Function Attrs: mustprogress uwtable
define internal { double, double } @_ZL14aeqd_e_forward5PJ_LPP8PJconsts(double %0, double %1, ptr noundef readonly captures(none) %2) #0 {
  %4 = alloca double, align 8
  %5 = alloca double, align 8
  %6 = alloca double, align 8
  %7 = getelementptr inbounds nuw i8, ptr %2, i64 88
  %8 = load ptr, ptr %7, align 8, !tbaa !40
  call void @llvm.lifetime.start.p0(i64 8, ptr nonnull %4) #8
  call void @llvm.lifetime.start.p0(i64 8, ptr nonnull %5) #8
  call void @llvm.lifetime.start.p0(i64 8, ptr nonnull %6) #8
  %9 = tail call double @cos(double noundef %0) #8, !tbaa !50
  %10 = getelementptr inbounds nuw i8, ptr %8, i64 64
  %11 = load i32, ptr %10, align 8, !tbaa !44
  switch i32 %11, label %47 [
    i32 0, label %12
    i32 1, label %14
    i32 2, label %27
    i32 3, label %27
  ]

12:                                               ; preds = %3
  %13 = fneg double %9
  br label %14

14:                                               ; preds = %12, %3
  %.0 = phi double [ %9, %3 ], [ %13, %12 ]
  %15 = tail call double @cos(double noundef %1) #8, !tbaa !50
  %16 = tail call double @sin(double noundef %1) #8, !tbaa !50
  %17 = getelementptr inbounds nuw i8, ptr %8, i64 40
  %18 = load double, ptr %17, align 8, !tbaa !60
  %19 = getelementptr inbounds nuw i8, ptr %8, i64 16
  %20 = load ptr, ptr %19, align 8, !tbaa !56
  %21 = tail call noundef double @_Z7pj_mlfndddPKd(double noundef %1, double noundef %16, double noundef %15, ptr noundef %20)
  %22 = fsub double %18, %21
  %23 = tail call double @llvm.fabs.f64(double %22)
  %24 = tail call double @sin(double noundef %0) #8, !tbaa !50
  %25 = fmul double %24, %23
  %26 = fmul double %.0, %23
  br label %47

27:                                               ; preds = %3, %3
  %28 = tail call double @llvm.fabs.f64(double %0)
  %29 = fcmp olt double %28, 1.000000e-10
  %30 = getelementptr inbounds nuw i8, ptr %2, i64 448
  %31 = load double, ptr %30, align 8, !tbaa !43
  br i1 %29, label %32, label %._crit_edge

32:                                               ; preds = %27
  %33 = fsub double %1, %31
  %34 = tail call double @llvm.fabs.f64(double %33)
  %35 = fcmp olt double %34, 1.000000e-10
  br i1 %35, label %47, label %._crit_edge

._crit_edge:                                      ; preds = %27, %32
  %36 = fdiv double %31, 0x3F91DF46A2529D39
  %37 = fdiv double %1, 0x3F91DF46A2529D39
  %38 = fdiv double %0, 0x3F91DF46A2529D39
  %39 = getelementptr inbounds nuw i8, ptr %8, i64 72
  call void @geod_inverse(ptr noundef nonnull %39, double noundef %36, double noundef 0.000000e+00, double noundef %37, double noundef %38, ptr noundef nonnull %6, ptr noundef nonnull %4, ptr noundef nonnull %5)
  %40 = load double, ptr %4, align 8, !tbaa !68
  %41 = fmul double %40, 0x3F91DF46A2529D39
  %42 = load double, ptr %6, align 8, !tbaa !68
  %43 = call double @sin(double noundef %41) #8, !tbaa !50
  %44 = fmul double %42, %43
  %45 = call double @cos(double noundef %41) #8, !tbaa !50
  %46 = fmul double %42, %45
  br label %47

47:                                               ; preds = %32, %._crit_edge, %14, %3
  %.sroa.525.0 = phi double [ 0.000000e+00, %3 ], [ %46, %._crit_edge ], [ %26, %14 ], [ 0.000000e+00, %32 ]
  %.sroa.024.0 = phi double [ 0.000000e+00, %3 ], [ %44, %._crit_edge ], [ %25, %14 ], [ 0.000000e+00, %32 ]
  call void @llvm.lifetime.end.p0(i64 8, ptr nonnull %6) #8
  call void @llvm.lifetime.end.p0(i64 8, ptr nonnull %5) #8
  call void @llvm.lifetime.end.p0(i64 8, ptr nonnull %4) #8
  %.fca.0.insert = insertvalue { double, double } poison, double %.sroa.024.0, 0
  %.fca.1.insert = insertvalue { double, double } %.fca.0.insert, double %.sroa.525.0, 1
  ret { double, double } %.fca.1.insert
}